target datalayout = "e-m:e-p270:32:32-p271:32:32-p272:64:64-i64:64-i128:128-f80:128-n8:16:32:64-S128"
target triple = "x86_64-pc-linux-gnu"

%struct.stbi__gif = type { i32, i32, ptr, ptr, ptr, i32, i32, i32, i32, i32, [256 x [4 x i8]], [256 x [4 x i8]], [8192 x %struct.stbi__gif_lzw], ptr, i32, i32, i32, i32, i32, i32, i32, i32, i32, i32, i32 }
%struct.stbi__gif_lzw = type { i16, i8, i8 }

; Function Attrs: mustprogress uwtable
define internal void @_ZL18stbi__out_gif_codeP9stbi__gift(ptr noundef %0, i16 noundef zeroext %1) #3 {
  %3 = alloca ptr, align 8
  %4 = alloca i16, align 2
  %5 = alloca ptr, align 8
  %6 = alloca ptr, align 8
  %7 = alloca i32, align 4
  %8 = alloca i32, align 4
  store ptr %0, ptr %3, align 8, !tbaa !9
  store i16 %1, ptr %4, align 2, !tbaa !55
  call void @llvm.lifetime.start.p0(i64 8, ptr %5) #22
  call void @llvm.lifetime.start.p0(i64 8, ptr %6) #22
  call void @llvm.lifetime.start.p0(i64 4, ptr %7) #22
  %9 = load ptr, ptr %3, align 8, !tbaa !9
  %10 = getelementptr inbounds nuw %struct.stbi__gif, ptr %9, i32 0, i32 12
  %11 = load i16, ptr %4, align 2, !tbaa !55
  %12 = zext i16 %11 to i64
  %13 = getelementptr inbounds nuw [8192 x %struct.stbi__gif_lzw], ptr %10, i64 0, i64 %12
  %14 = getelementptr inbounds nuw %struct.stbi__gif_lzw, ptr %13, i32 0, i32 0
  %15 = load i16, ptr %14, align 4, !tbaa !233
  %16 = sext i16 %15 to i32
  %17 = icmp sge i32 %16, 0
  br i1 %17, label %18, label %27

18:                                               ; preds = %2
  %19 = load ptr, ptr %3, align 8, !tbaa !9
  %20 = load ptr, ptr %3, align 8, !tbaa !9
  %21 = getelementptr inbounds nuw %struct.stbi__gif, ptr %20, i32 0, i32 12
  %22 = load i16, ptr %4, align 2, !tbaa !55
  %23 = zext i16 %22 to i64
  %24 = getelementptr inbounds nuw [8192 x %struct.stbi__gif_lzw], ptr %21, i64 0, i64 %23
  %25 = getelementptr inbounds nuw %struct.stbi__gif_lzw, ptr %24, i32 0, i32 0
  %26 = load i16, ptr %25, align 4, !tbaa !233
  call void @_ZL18stbi__out_gif_codeP9stbi__gift(ptr noundef %19, i16 noundef zeroext %26)
  br label %27

27:                                               ; preds = %18, %2
  %28 = load ptr, ptr %3, align 8, !tbaa !9
  %29 = getelementptr inbounds nuw %struct.stbi__gif, ptr %28, i32 0, i32 22
  %30 = load i32, ptr %29, align 8, !tbaa !220
  %31 = load ptr, ptr %3, align 8, !tbaa !9
  %32 = getelementptr inbounds nuw %struct.stbi__gif, ptr %31, i32 0, i32 20
  %33 = load i32, ptr %32, align 8, !tbaa !218
  %34 = icmp sge i32 %30, %33
  br i1 %34, label %35, label %36

35:                                               ; preds = %27
  store i32 1, ptr %8, align 4
  br label %164

36:                                               ; preds = %27
  %37 = load ptr, ptr %3, align 8, !tbaa !9
  %38 = getelementptr inbounds nuw %struct.stbi__gif, ptr %37, i32 0, i32 21
  %39 = load i32, ptr %38, align 4, !tbaa !219
  %40 = load ptr, ptr %3, align 8, !tbaa !9
  %41 = getelementptr inbounds nuw %struct.stbi__gif, ptr %40, i32 0, i32 22
  %42 = load i32, ptr %41, align 8, !tbaa !220
  %43 = add nsw i32 %39, %42
  store i32 %43, ptr %7, align 4, !tbaa !10
  %44 = load ptr, ptr %3, align 8, !tbaa !9
  %45 = getelementptr inbounds nuw %struct.stbi__gif, ptr %44, i32 0, i32 2
  %46 = load ptr, ptr %45, align 8, !tbaa !41
  %47 = load i32, ptr %7, align 4, !tbaa !10
  %48 = sext i32 %47 to i64
  %49 = getelementptr inbounds i8, ptr %46, i64 %48
  store ptr %49, ptr %5, align 8, !tbaa !4
  %50 = load ptr, ptr %3, align 8, !tbaa !9
  %51 = getelementptr inbounds nuw %struct.stbi__gif, ptr %50, i32 0, i32 4
  %52 = load ptr, ptr %51, align 8, !tbaa !42
  %53 = load i32, ptr %7, align 4, !tbaa !10
  %54 = sdiv i32 %53, 4
  %55 = sext i32 %54 to i64
  %56 = getelementptr inbounds i8, ptr %52, i64 %55
  store i8 1, ptr %56, align 1, !tbaa !57
  %57 = load ptr, ptr %3, align 8, !tbaa !9
  %58 = getelementptr inbounds nuw %struct.stbi__gif, ptr %57, i32 0, i32 13
  %59 = load ptr, ptr %58, align 8, !tbaa !225
  %60 = load ptr, ptr %3, align 8, !tbaa !9
  %61 = getelementptr inbounds nuw %struct.stbi__gif, ptr %60, i32 0, i32 12
  %62 = load i16, ptr %4, align 2, !tbaa !55
  %63 = zext i16 %62 to i64
  %64 = getelementptr inbounds nuw [8192 x %struct.stbi__gif_lzw], ptr %61, i64 0, i64 %63
  %65 = getelementptr inbounds nuw %struct.stbi__gif_lzw, ptr %64, i32 0, i32 2
  %66 = load i8, ptr %65, align 1, !tbaa !236
  %67 = zext i8 %66 to i32
  %68 = mul nsw i32 %67, 4
  %69 = sext i32 %68 to i64
  %70 = getelementptr inbounds i8, ptr %59, i64 %69
  store ptr %70, ptr %6, align 8, !tbaa !4
  %71 = load ptr, ptr %6, align 8, !tbaa !4
  %72 = getelementptr inbounds i8, ptr %71, i64 3
  %73 = load i8, ptr %72, align 1, !tbaa !57
  %74 = zext i8 %73 to i32
  %75 = icmp sgt i32 %74, 128
  br i1 %75, label %76, label %97

76:                                               ; preds = %36
  %77 = load ptr, ptr %6, align 8, !tbaa !4
  %78 = getelementptr inbounds i8, ptr %77, i64 2
  %79 = load i8, ptr %78, align 1, !tbaa !57
  %80 = load ptr, ptr %5, align 8, !tbaa !4
  %81 = getelementptr inbounds i8, ptr %80, i64 0
  store i8 %79, ptr %81, align 1, !tbaa !57
  %82 = load ptr, ptr %6, align 8, !tbaa !4
  %83 = getelementptr inbounds i8, ptr %82, i64 1
  %84 = load i8, ptr %83, align 1, !tbaa !57
  %85 = load ptr, ptr %5, align 8, !tbaa !4
  %86 = getelementptr inbounds i8, ptr %85, i64 1
  store i8 %84, ptr %86, align 1, !tbaa !57
  %87 = load ptr, ptr %6, align 8, !tbaa !4
  %88 = getelementptr inbounds i8, ptr %87, i64 0
  %89 = load i8, ptr %88, align 1, !tbaa !57
  %90 = load ptr, ptr %5, align 8, !tbaa !4
  %91 = getelementptr inbounds i8, ptr %90, i64 2
  store i8 %89, ptr %91, align 1, !tbaa !57
  %92 = load ptr, ptr %6, align 8, !tbaa !4
  %93 = getelementptr inbounds i8, ptr %92, i64 3
  %94 = load i8, ptr %93, align 1, !tbaa !57
  %95 = load ptr, ptr %5, align 8, !tbaa !4
  %96 = getelementptr inbounds i8, ptr %95, i64 3
  store i8 %94, ptr %96, align 1, !tbaa !57
  br label %97

97:                                               ; preds = %76, %36
  %98 = load ptr, ptr %3, align 8, !tbaa !9
  %99 = getelementptr inbounds nuw %struct.stbi__gif, ptr %98, i32 0, i32 21
  %100 = load i32, ptr %99, align 4, !tbaa !219
  %101 = add nsw i32 %100, 4
  store i32 %101, ptr %99, align 4, !tbaa !219
  %102 = load ptr, ptr %3, align 8, !tbaa !9
  %103 = getelementptr inbounds nuw %struct.stbi__gif, ptr %102, i32 0, i32 21
  %104 = load i32, ptr %103, align 4, !tbaa !219
  %105 = load ptr, ptr %3, align 8, !tbaa !9
  %106 = getelementptr inbounds nuw %struct.stbi__gif, ptr %105, i32 0, i32 19
  %107 = load i32, ptr %106, align 4, !tbaa !217
  %108 = icmp sge i32 %104, %107
  br i1 %108, label %109, label %163

109:                                              ; preds = %97
  %110 = load ptr, ptr %3, align 8, !tbaa !9
  %111 = getelementptr inbounds nuw %struct.stbi__gif, ptr %110, i32 0, i32 17
  %112 = load i32, ptr %111, align 4, !tbaa !215
  %113 = load ptr, ptr %3, align 8, !tbaa !9
  %114 = getelementptr inbounds nuw %struct.stbi__gif, ptr %113, i32 0, i32 21
  store i32 %112, ptr %114, align 4, !tbaa !219
  %115 = load ptr, ptr %3, align 8, !tbaa !9
  %116 = getelementptr inbounds nuw %struct.stbi__gif, ptr %115, i32 0, i32 15
  %117 = load i32, ptr %116, align 4, !tbaa !222
  %118 = load ptr, ptr %3, align 8, !tbaa !9
  %119 = getelementptr inbounds nuw %struct.stbi__gif, ptr %118, i32 0, i32 22
  %120 = load i32, ptr %119, align 8, !tbaa !220
  %121 = add nsw i32 %120, %117
  store i32 %121, ptr %119, align 8, !tbaa !220
  br label %122

122:                                              ; preds = %137, %109
  %123 = load ptr, ptr %3, align 8, !tbaa !9
  %124 = getelementptr inbounds nuw %struct.stbi__gif, ptr %123, i32 0, i32 22
  %125 = load i32, ptr %124, align 8, !tbaa !220
  %126 = load ptr, ptr %3, align 8, !tbaa !9
  %127 = getelementptr inbounds nuw %struct.stbi__gif, ptr %126, i32 0, i32 20
  %128 = load i32, ptr %127, align 8, !tbaa !218
  %129 = icmp sge i32 %125, %128
  br i1 %129, label %130, label %135

130:                                              ; preds = %122
  %131 = load ptr, ptr %3, align 8, !tbaa !9
  %132 = getelementptr inbounds nuw %struct.stbi__gif, ptr %131, i32 0, i32 14
  %133 = load i32, ptr %132, align 8, !tbaa !223
  %134 = icmp sgt i32 %133, 0
  br label %135

135:                                              ; preds = %130, %122
  %136 = phi i1 [ false, %122 ], [ %134, %130 ]
  br i1 %136, label %137, label %162

137:                                              ; preds = %135
  %138 = load ptr, ptr %3, align 8, !tbaa !9
  %139 = getelementptr inbounds nuw %struct.stbi__gif, ptr %138, i32 0, i32 14
  %140 = load i32, ptr %139, align 8, !tbaa !223
  %141 = shl i32 1, %140
  %142 = load ptr, ptr %3, align 8, !tbaa !9
  %143 = getelementptr inbounds nuw %struct.stbi__gif, ptr %142, i32 0, i32 23
  %144 = load i32, ptr %143, align 4, !tbaa !214
  %145 = mul nsw i32 %141, %144
  %146 = load ptr, ptr %3, align 8, !tbaa !9
  %147 = getelementptr inbounds nuw %struct.stbi__gif, ptr %146, i32 0, i32 15
  store i32 %145, ptr %147, align 4, !tbaa !222
  %148 = load ptr, ptr %3, align 8, !tbaa !9
  %149 = getelementptr inbounds nuw %struct.stbi__gif, ptr %148, i32 0, i32 18
  %150 = load i32, ptr %149, align 8, !tbaa !216
  %151 = load ptr, ptr %3, align 8, !tbaa !9
  %152 = getelementptr inbounds nuw %struct.stbi__gif, ptr %151, i32 0, i32 15
  %153 = load i32, ptr %152, align 4, !tbaa !222
  %154 = ashr i32 %153, 1
  %155 = add nsw i32 %150, %154
  %156 = load ptr, ptr %3, align 8, !tbaa !9
  %157 = getelementptr inbounds nuw %struct.stbi__gif, ptr %156, i32 0, i32 22
  store i32 %155, ptr %157, align 8, !tbaa !220
  %158 = load ptr, ptr %3, align 8, !tbaa !9
  %159 = getelementptr inbounds nuw %struct.stbi__gif, ptr %158, i32 0, i32 14
  %160 = load i32, ptr %159, align 8, !tbaa !223
  %161 = add nsw i32 %160, -1
  store i32 %161, ptr %159, align 8, !tbaa !223
  br label %122, !llvm.loop !240

162:                                              ; preds = %135
  br label %163

163:                                              ; preds = %162, %97
  store i32 0, ptr %8, align 4
  br label %164

164:                                              ; preds = %163, %35
  call void @llvm.lifetime.end.p0(i64 4, ptr %7) #22
  call void @llvm.lifetime.end.p0(i64 8, ptr %6) #22
  call void @llvm.lifetime.end.p0(i64 8, ptr %5) #22
  %165 = load i32, ptr %8, align 4
  switch i32 %165, label %167 [
    i32 0, label %166
    i32 1, label %166
  ]

166:                                              ; preds = %164, %164
  ret void

167:                                              ; preds = %164
  unreachable
}