; Function Attrs: mustprogress nofree nosync nounwind memory(readwrite, inaccessiblemem: none) uwtable
define internal fastcc void @_ZL18stbi__out_gif_codeP9stbi__gift(ptr noundef nonnull captures(none) %0, i16 noundef zeroext %1) unnamed_addr #26 {
  %3 = getelementptr inbounds nuw i8, ptr %0, i64 2100
  %4 = zext i16 %1 to i64
  %5 = getelementptr inbounds nuw [8192 x %struct.stbi__gif_lzw], ptr %3, i64 0, i64 %4
  %6 = load i16, ptr %5, align 4, !tbaa !296
  %7 = icmp sgt i16 %6, -1
  br i1 %7, label %8, label %9

8:                                                ; preds = %2
  tail call fastcc void @_ZL18stbi__out_gif_codeP9stbi__gift(ptr noundef %0, i16 noundef zeroext %6)
  br label %9

9:                                                ; preds = %8, %2
  %10 = getelementptr inbounds nuw i8, ptr %0, i64 34912
  %11 = load i32, ptr %10, align 8, !tbaa !309
  %12 = getelementptr inbounds nuw i8, ptr %0, i64 34904
  %13 = load i32, ptr %12, align 8, !tbaa !288
  %.not = icmp slt i32 %11, %13
  br i1 %.not, label %14, label %.critedge

14:                                               ; preds = %9
  %15 = getelementptr inbounds nuw i8, ptr %0, i64 34908
  %16 = load i32, ptr %15, align 4, !tbaa !289
  %17 = add nsw i32 %16, %11
  %18 = getelementptr inbounds nuw i8, ptr %0, i64 8
  %19 = load ptr, ptr %18, align 8, !tbaa !39
  %20 = getelementptr inbounds nuw i8, ptr %0, i64 24
  %21 = load ptr, ptr %20, align 8, !tbaa !40
  %22 = sdiv i32 %17, 4
  %23 = sext i32 %22 to i64
  %24 = getelementptr inbounds i8, ptr %21, i64 %23
  store i8 1, ptr %24, align 1, !tbaa !22
  %25 = getelementptr inbounds nuw i8, ptr %0, i64 34872
  %26 = load ptr, ptr %25, align 8, !tbaa !294
  %27 = getelementptr inbounds nuw i8, ptr %5, i64 3
  %28 = load i8, ptr %27, align 1, !tbaa !299
  %29 = zext i8 %28 to i64
  %30 = shl nuw nsw i64 %29, 2
  %31 = getelementptr inbounds nuw i8, ptr %26, i64 %30
  %32 = getelementptr inbounds nuw i8, ptr %31, i64 3
  %33 = load i8, ptr %32, align 1, !tbaa !22
  %34 = icmp ugt i8 %33, -128
  br i1 %34, label %35, label %47

35:                                               ; preds = %14
  %36 = sext i32 %17 to i64
  %37 = getelementptr inbounds i8, ptr %19, i64 %36
  %38 = getelementptr inbounds nuw i8, ptr %31, i64 2
  %39 = load i8, ptr %38, align 1, !tbaa !22
  store i8 %39, ptr %37, align 1, !tbaa !22
  %40 = getelementptr inbounds nuw i8, ptr %31, i64 1
  %41 = load i8, ptr %40, align 1, !tbaa !22
  %42 = getelementptr inbounds nuw i8, ptr %37, i64 1
  store i8 %41, ptr %42, align 1, !tbaa !22
  %43 = load i8, ptr %31, align 1, !tbaa !22
  %44 = getelementptr inbounds nuw i8, ptr %37, i64 2
  store i8 %43, ptr %44, align 1, !tbaa !22
  %45 = load i8, ptr %32, align 1, !tbaa !22
  %46 = getelementptr inbounds nuw i8, ptr %37, i64 3
  store i8 %45, ptr %46, align 1, !tbaa !22
  br label %47

47:                                               ; preds = %35, %14
  %48 = load i32, ptr %15, align 4, !tbaa !289
  %49 = add nsw i32 %48, 4
  store i32 %49, ptr %15, align 4, !tbaa !289
  %50 = getelementptr inbounds nuw i8, ptr %0, i64 34900
  %51 = load i32, ptr %50, align 4, !tbaa !287
  %.not42 = icmp slt i32 %49, %51
  br i1 %.not42, label %.critedge, label %52

52:                                               ; preds = %47
  %53 = getelementptr inbounds nuw i8, ptr %0, i64 34892
  %54 = load i32, ptr %53, align 4, !tbaa !285
  store i32 %54, ptr %15, align 4, !tbaa !289
  %55 = getelementptr inbounds nuw i8, ptr %0, i64 34884
  %56 = load i32, ptr %55, align 4, !tbaa !291
  %57 = load i32, ptr %10, align 8, !tbaa !309
  %58 = add nsw i32 %57, %56
  store i32 %58, ptr %10, align 8, !tbaa !309
  %59 = getelementptr inbounds nuw i8, ptr %0, i64 34880
  %60 = load i32, ptr %12, align 8, !tbaa !288
  %.not4344 = icmp slt i32 %58, %60
  br i1 %.not4344, label %.critedge, label %.lr.ph

.lr.ph:                                           ; preds = %52
  %61 = getelementptr inbounds nuw i8, ptr %0, i64 34916
  %62 = getelementptr inbounds nuw i8, ptr %0, i64 34896
  %.promoted46 = load i32, ptr %59, align 8, !tbaa !292
  br label %63

63:                                               ; preds = %.lr.ph, %66
  %64 = phi i32 [ %.promoted46, %.lr.ph ], [ %72, %66 ]
  %65 = icmp sgt i32 %64, 0
  br i1 %65, label %66, label %.critedge

66:                                               ; preds = %63
  %67 = load i32, ptr %61, align 4, !tbaa !284
  %68 = shl i32 %67, %64
  store i32 %68, ptr %55, align 4, !tbaa !291
  %69 = load i32, ptr %62, align 8, !tbaa !286
  %70 = ashr i32 %68, 1
  %71 = add nsw i32 %69, %70
  store i32 %71, ptr %10, align 8, !tbaa !309
  %72 = add nsw i32 %64, -1
  store i32 %72, ptr %59, align 8, !tbaa !292
  %.not43 = icmp slt i32 %71, %60
  br i1 %.not43, label %.critedge, label %63, !llvm.loop !310

.critedge:                                        ; preds = %63, %66, %52, %47, %9
  ret void
}